target datalayout = "e-m:e-p270:32:32-p271:32:32-p272:64:64-i64:64-i128:128-f80:128-n8:16:32:64-S128"
target triple = "x86_64-pc-linux-gnu"

%"class.std::__cxx11::basic_string" = type { %"struct.std::__cxx11::basic_string<char>::_Alloc_hider", i64, %union.anon }
%"struct.std::__cxx11::basic_string<char>::_Alloc_hider" = type { ptr }
%union.anon = type { i64, [8 x i8] }
%"class.google::protobuf::internal::LogMessage" = type { i32, ptr, i32, %"class.std::__cxx11::basic_string" }
%"class.google::protobuf::internal::LogFinisher" = type { i8 }

@.str = private unnamed_addr constant [146 x i8] c"generated/home/dtcxzyw/WorkSpace/Projects/compilers/llvm-opt-benchmark/bench/opencv/opencv/3rdparty/protobuf/src/google/protobuf/stubs/strutil.cc\00", align 1
@.str.10 = private unnamed_addr constant [33 x i8] c"CHECK failed: (digits) < (100): \00", align 1

; Function Attrs: mustprogress uwtable
define hidden noundef ptr @_ZN6google8protobuf22FastUInt64ToBufferLeftEmPc(i64 noundef %0, ptr noundef %1) #4 personality ptr @__gxx_personality_v0 {
  %3 = alloca ptr, align 8
  %4 = alloca i64, align 8
  %5 = alloca ptr, align 8
  %6 = alloca i32, align 4
  %7 = alloca ptr, align 8
  %8 = alloca i32, align 4
  %9 = alloca i32, align 4
  %10 = alloca i64, align 8
  %11 = alloca %"class.google::protobuf::internal::LogMessage", align 8
  %12 = alloca i1, align 1
  %13 = alloca i1, align 1
  %14 = alloca ptr, align 8
  %15 = alloca i32, align 4
  %16 = alloca %"class.google::protobuf::internal::LogFinisher", align 1
  store i64 %0, ptr %4, align 8, !tbaa !13
  store ptr %1, ptr %5, align 8, !tbaa !8
  call void @llvm.lifetime.start.p0(i64 4, ptr %6) #3
  call void @llvm.lifetime.start.p0(i64 8, ptr %7) #3
  store ptr null, ptr %7, align 8, !tbaa !8
  call void @llvm.lifetime.start.p0(i64 4, ptr %8) #3
  %17 = load i64, ptr %4, align 8, !tbaa !13
  %18 = trunc i64 %17 to i32
  store i32 %18, ptr %8, align 4, !tbaa !15
  %19 = load i32, ptr %8, align 4, !tbaa !15
  %20 = zext i32 %19 to i64
  %21 = load i64, ptr %4, align 8, !tbaa !13
  %22 = icmp eq i64 %20, %21
  br i1 %22, label %23, label %27

23:                                               ; preds = %2
  %24 = load i32, ptr %8, align 4, !tbaa !15
  %25 = load ptr, ptr %5, align 8, !tbaa !8
  %26 = call noundef ptr @_ZN6google8protobuf22FastUInt32ToBufferLeftEjPc(i32 noundef %24, ptr noundef %25)
  store ptr %26, ptr %3, align 8
  store i32 1, ptr %9, align 4
  br label %166

27:                                               ; preds = %2
  call void @llvm.lifetime.start.p0(i64 8, ptr %10) #3
  %28 = load i64, ptr %4, align 8, !tbaa !13
  %29 = udiv i64 %28, 1000000000
  store i64 %29, ptr %10, align 8, !tbaa !13
  %30 = load i64, ptr %10, align 8, !tbaa !13
  %31 = load ptr, ptr %5, align 8, !tbaa !8
  %32 = call noundef ptr @_ZN6google8protobuf22FastUInt64ToBufferLeftEmPc(i64 noundef %30, ptr noundef %31)
  store ptr %32, ptr %5, align 8, !tbaa !8
  %33 = load i64, ptr %4, align 8, !tbaa !13
  %34 = load i64, ptr %10, align 8, !tbaa !13
  %35 = mul i64 %34, 1000000000
  %36 = sub i64 %33, %35
  %37 = trunc i64 %36 to i32
  store i32 %37, ptr %8, align 4, !tbaa !15
  %38 = load i32, ptr %8, align 4, !tbaa !15
  %39 = udiv i32 %38, 10000000
  store i32 %39, ptr %6, align 4, !tbaa !15
  br label %40

40:                                               ; preds = %55, %27
  br i1 false, label %41, label %71

41:                                               ; preds = %40
  %42 = load i32, ptr %6, align 4, !tbaa !15
  %43 = icmp slt i32 %42, 100
  store i1 false, ptr %12, align 1
  store i1 false, ptr %13, align 1
  call void @llvm.lifetime.start.p0(i64 1, ptr %16) #3
  br i1 %43, label %44, label %45

44:                                               ; preds = %41
  br label %49

45:                                               ; preds = %41
  call void @llvm.lifetime.start.p0(i64 56, ptr %11) #3
  store i1 true, ptr %12, align 1
  call void @_ZN6google8protobuf8internal10LogMessageC1ENS0_8LogLevelEPKci(ptr noundef nonnull align 8 dereferenceable(56) %11, i32 noundef 3, ptr noundef @.str, i32 noundef 1068)
  store i1 true, ptr %13, align 1
  %46 = invoke noundef nonnull align 8 dereferenceable(56) ptr @_ZN6google8protobuf8internal10LogMessagelsEPKc(ptr noundef nonnull align 8 dereferenceable(56) %11, ptr noundef @.str.10)
          to label %47 unwind label %56

47:                                               ; preds = %45
  invoke void @_ZN6google8protobuf8internal11LogFinisheraSERNS1_10LogMessageE(ptr noundef nonnull align 1 dereferenceable(1) %16, ptr noundef nonnull align 8 dereferenceable(56) %46)
          to label %48 unwind label %60

48:                                               ; preds = %47
  br label %49

49:                                               ; preds = %48, %44
  call void @llvm.lifetime.end.p0(i64 1, ptr %16) #3
  %50 = load i1, ptr %13, align 1
  br i1 %50, label %51, label %52

51:                                               ; preds = %49
  call void @_ZN6google8protobuf8internal10LogMessageD1Ev(ptr noundef nonnull align 8 dereferenceable(56) %11) #3
  br label %52

52:                                               ; preds = %51, %49
  %53 = load i1, ptr %12, align 1
  br i1 %53, label %54, label %55

54:                                               ; preds = %52
  call void @llvm.lifetime.end.p0(i64 56, ptr %11) #3
  br label %55

55:                                               ; preds = %54, %52
  br label %40, !llvm.loop !70

56:                                               ; preds = %45
  %57 = landingpad { ptr, i32 }
          cleanup
  %58 = extractvalue { ptr, i32 } %57, 0
  store ptr %58, ptr %14, align 8
  %59 = extractvalue { ptr, i32 } %57, 1
  store i32 %59, ptr %15, align 4
  br label %64

60:                                               ; preds = %47
  %61 = landingpad { ptr, i32 }
          cleanup
  %62 = extractvalue { ptr, i32 } %61, 0
  store ptr %62, ptr %14, align 8
  %63 = extractvalue { ptr, i32 } %61, 1
  store i32 %63, ptr %15, align 4
  call void @llvm.lifetime.end.p0(i64 1, ptr %16) #3
  br label %64

64:                                               ; preds = %60, %56
  %65 = load i1, ptr %13, align 1
  br i1 %65, label %66, label %67

66:                                               ; preds = %64
  call void @_ZN6google8protobuf8internal10LogMessageD1Ev(ptr noundef nonnull align 8 dereferenceable(56) %11) #3
  br label %67

67:                                               ; preds = %66, %64
  %68 = load i1, ptr %12, align 1
  br i1 %68, label %69, label %70

69:                                               ; preds = %67
  call void @llvm.lifetime.end.p0(i64 56, ptr %11) #3
  br label %70

70:                                               ; preds = %69, %67
  call void @llvm.lifetime.end.p0(i64 8, ptr %10) #3
  call void @llvm.lifetime.end.p0(i64 4, ptr %8) #3
  call void @llvm.lifetime.end.p0(i64 8, ptr %7) #3
  call void @llvm.lifetime.end.p0(i64 4, ptr %6) #3
  br label %168

71:                                               ; preds = %40
  %72 = load i32, ptr %6, align 4, !tbaa !15
  %73 = sext i32 %72 to i64
  %74 = getelementptr inbounds [100 x [2 x i8]], ptr @_ZN6google8protobufL16two_ASCII_digitsE, i64 0, i64 %73
  %75 = getelementptr inbounds [2 x i8], ptr %74, i64 0, i64 0
  store ptr %75, ptr %7, align 8, !tbaa !8
  %76 = load ptr, ptr %7, align 8, !tbaa !8
  %77 = getelementptr inbounds i8, ptr %76, i64 0
  %78 = load i8, ptr %77, align 1, !tbaa !10
  %79 = load ptr, ptr %5, align 8, !tbaa !8
  %80 = getelementptr inbounds i8, ptr %79, i64 0
  store i8 %78, ptr %80, align 1, !tbaa !10
  %81 = load ptr, ptr %7, align 8, !tbaa !8
  %82 = getelementptr inbounds i8, ptr %81, i64 1
  %83 = load i8, ptr %82, align 1, !tbaa !10
  %84 = load ptr, ptr %5, align 8, !tbaa !8
  %85 = getelementptr inbounds i8, ptr %84, i64 1
  store i8 %83, ptr %85, align 1, !tbaa !10
  %86 = load ptr, ptr %5, align 8, !tbaa !8
  %87 = getelementptr inbounds i8, ptr %86, i64 2
  store ptr %87, ptr %5, align 8, !tbaa !8
  %88 = load i32, ptr %6, align 4, !tbaa !15
  %89 = mul nsw i32 %88, 10000000
  %90 = load i32, ptr %8, align 4, !tbaa !15
  %91 = sub i32 %90, %89
  store i32 %91, ptr %8, align 4, !tbaa !15
  %92 = load i32, ptr %8, align 4, !tbaa !15
  %93 = udiv i32 %92, 100000
  store i32 %93, ptr %6, align 4, !tbaa !15
  %94 = load i32, ptr %6, align 4, !tbaa !15
  %95 = sext i32 %94 to i64
  %96 = getelementptr inbounds [100 x [2 x i8]], ptr @_ZN6google8protobufL16two_ASCII_digitsE, i64 0, i64 %95
  %97 = getelementptr inbounds [2 x i8], ptr %96, i64 0, i64 0
  store ptr %97, ptr %7, align 8, !tbaa !8
  %98 = load ptr, ptr %7, align 8, !tbaa !8
  %99 = getelementptr inbounds i8, ptr %98, i64 0
  %100 = load i8, ptr %99, align 1, !tbaa !10
  %101 = load ptr, ptr %5, align 8, !tbaa !8
  %102 = getelementptr inbounds i8, ptr %101, i64 0
  store i8 %100, ptr %102, align 1, !tbaa !10
  %103 = load ptr, ptr %7, align 8, !tbaa !8
  %104 = getelementptr inbounds i8, ptr %103, i64 1
  %105 = load i8, ptr %104, align 1, !tbaa !10
  %106 = load ptr, ptr %5, align 8, !tbaa !8
  %107 = getelementptr inbounds i8, ptr %106, i64 1
  store i8 %105, ptr %107, align 1, !tbaa !10
  %108 = load ptr, ptr %5, align 8, !tbaa !8
  %109 = getelementptr inbounds i8, ptr %108, i64 2
  store ptr %109, ptr %5, align 8, !tbaa !8
  %110 = load i32, ptr %6, align 4, !tbaa !15
  %111 = mul nsw i32 %110, 100000
  %112 = load i32, ptr %8, align 4, !tbaa !15
  %113 = sub i32 %112, %111
  store i32 %113, ptr %8, align 4, !tbaa !15
  %114 = load i32, ptr %8, align 4, !tbaa !15
  %115 = udiv i32 %114, 1000
  store i32 %115, ptr %6, align 4, !tbaa !15
  %116 = load i32, ptr %6, align 4, !tbaa !15
  %117 = sext i32 %116 to i64
  %118 = getelementptr inbounds [100 x [2 x i8]], ptr @_ZN6google8protobufL16two_ASCII_digitsE, i64 0, i64 %117
  %119 = getelementptr inbounds [2 x i8], ptr %118, i64 0, i64 0
  store ptr %119, ptr %7, align 8, !tbaa !8
  %120 = load ptr, ptr %7, align 8, !tbaa !8
  %121 = getelementptr inbounds i8, ptr %120, i64 0
  %122 = load i8, ptr %121, align 1, !tbaa !10
  %123 = load ptr, ptr %5, align 8, !tbaa !8
  %124 = getelementptr inbounds i8, ptr %123, i64 0
  store i8 %122, ptr %124, align 1, !tbaa !10
  %125 = load ptr, ptr %7, align 8, !tbaa !8
  %126 = getelementptr inbounds i8, ptr %125, i64 1
  %127 = load i8, ptr %126, align 1, !tbaa !10
  %128 = load ptr, ptr %5, align 8, !tbaa !8
  %129 = getelementptr inbounds i8, ptr %128, i64 1
  store i8 %127, ptr %129, align 1, !tbaa !10
  %130 = load ptr, ptr %5, align 8, !tbaa !8
  %131 = getelementptr inbounds i8, ptr %130, i64 2
  store ptr %131, ptr %5, align 8, !tbaa !8
  %132 = load i32, ptr %6, align 4, !tbaa !15
  %133 = mul nsw i32 %132, 1000
  %134 = load i32, ptr %8, align 4, !tbaa !15
  %135 = sub i32 %134, %133
  store i32 %135, ptr %8, align 4, !tbaa !15
  %136 = load i32, ptr %8, align 4, !tbaa !15
  %137 = udiv i32 %136, 10
  store i32 %137, ptr %6, align 4, !tbaa !15
  %138 = load i32, ptr %6, align 4, !tbaa !15
  %139 = sext i32 %138 to i64
  %140 = getelementptr inbounds [100 x [2 x i8]], ptr @_ZN6google8protobufL16two_ASCII_digitsE, i64 0, i64 %139
  %141 = getelementptr inbounds [2 x i8], ptr %140, i64 0, i64 0
  store ptr %141, ptr %7, align 8, !tbaa !8
  %142 = load ptr, ptr %7, align 8, !tbaa !8
  %143 = getelementptr inbounds i8, ptr %142, i64 0
  %144 = load i8, ptr %143, align 1, !tbaa !10
  %145 = load ptr, ptr %5, align 8, !tbaa !8
  %146 = getelementptr inbounds i8, ptr %145, i64 0
  store i8 %144, ptr %146, align 1, !tbaa !10
  %147 = load ptr, ptr %7, align 8, !tbaa !8
  %148 = getelementptr inbounds i8, ptr %147, i64 1
  %149 = load i8, ptr %148, align 1, !tbaa !10
  %150 = load ptr, ptr %5, align 8, !tbaa !8
  %151 = getelementptr inbounds i8, ptr %150, i64 1
  store i8 %149, ptr %151, align 1, !tbaa !10
  %152 = load ptr, ptr %5, align 8, !tbaa !8
  %153 = getelementptr inbounds i8, ptr %152, i64 2
  store ptr %153, ptr %5, align 8, !tbaa !8
  %154 = load i32, ptr %6, align 4, !tbaa !15
  %155 = mul nsw i32 %154, 10
  %156 = load i32, ptr %8, align 4, !tbaa !15
  %157 = sub i32 %156, %155
  store i32 %157, ptr %8, align 4, !tbaa !15
  %158 = load i32, ptr %8, align 4, !tbaa !15
  store i32 %158, ptr %6, align 4, !tbaa !15
  %159 = load i32, ptr %6, align 4, !tbaa !15
  %160 = add nsw i32 48, %159
  %161 = trunc i32 %160 to i8
  %162 = load ptr, ptr %5, align 8, !tbaa !8
  %163 = getelementptr inbounds nuw i8, ptr %162, i32 1
  store ptr %163, ptr %5, align 8, !tbaa !8
  store i8 %161, ptr %162, align 1, !tbaa !10
  %164 = load ptr, ptr %5, align 8, !tbaa !8
  store i8 0, ptr %164, align 1, !tbaa !10
  %165 = load ptr, ptr %5, align 8, !tbaa !8
  store ptr %165, ptr %3, align 8
  store i32 1, ptr %9, align 4
  call void @llvm.lifetime.end.p0(i64 8, ptr %10) #3
  br label %166

166:                                              ; preds = %71, %23
  call void @llvm.lifetime.end.p0(i64 4, ptr %8) #3
  call void @llvm.lifetime.end.p0(i64 8, ptr %7) #3
  call void @llvm.lifetime.end.p0(i64 4, ptr %6) #3
  %167 = load ptr, ptr %3, align 8
  ret ptr %167

168:                                              ; preds = %70
  %169 = load ptr, ptr %14, align 8
  %170 = load i32, ptr %15, align 4
  %171 = insertvalue { ptr, i32 } poison, ptr %169, 0
  %172 = insertvalue { ptr, i32 } %171, i32 %170, 1
  resume { ptr, i32 } %172
}